target datalayout = "e-m:e-p270:32:32-p271:32:32-p272:64:64-i64:64-i128:128-f80:128-n8:16:32:64-S128"
target triple = "x86_64-pc-linux-gnu"

%struct.jpeg_decompress_struct = type { ptr, ptr, ptr, ptr, i32, i32, ptr, i32, i32, i32, i32, i32, i32, i32, double, i32, i32, i32, i32, i32, i32, i32, i32, i32, i32, i32, i32, i32, i32, i32, i32, i32, i32, ptr, i32, i32, i32, i32, i32, ptr, [4 x ptr], [4 x ptr], [4 x ptr], i32, ptr, i32, i32, [16 x i8], [16 x i8], [16 x i8], i32, i32, i8, i8, i8, i16, i16, i32, i8, i32, ptr, i32, i32, i32, i32, ptr, i32, [4 x ptr], i32, i32, i32, [10 x i32], i32, i32, i32, i32, i32, ptr, ptr, ptr, ptr, ptr, ptr, ptr, ptr, ptr, ptr, ptr }
%struct.jpeg_memory_mgr = type { ptr, ptr, ptr, ptr, ptr, ptr, ptr, ptr, ptr, ptr, ptr, i64, i64 }
%struct.my_diff_controller = type { %struct.jpeg_d_coef_controller, i32, i32, i32, i32, [10 x ptr], [10 x ptr], [10 x ptr] }
%struct.jpeg_d_coef_controller = type { ptr, ptr, ptr, ptr, ptr, ptr, i32, i32, i32, ptr }
%struct.jpeg_component_info = type { i32, i32, i32, i32, i32, i32, i32, i32, i32, i32, i32, i32, i32, i32, i32, i32, i32, i32, i32, ptr, ptr }

; Function Attrs: nounwind uwtable
define internal i32 @consume_data(ptr noundef %0) #0 {
  %2 = alloca ptr, align 8
  %3 = alloca ptr, align 8
  %4 = alloca i32, align 4
  %5 = alloca i32, align 4
  %6 = alloca [4 x ptr], align 16
  %7 = alloca ptr, align 8
  store ptr %0, ptr %2, align 8
  %8 = load ptr, ptr %2, align 8
  %9 = getelementptr inbounds %struct.jpeg_decompress_struct, ptr %8, i32 0, i32 79
  %10 = load ptr, ptr %9, align 8
  store ptr %10, ptr %3, align 8
  store i32 0, ptr %4, align 4
  br label %11

11:                                               ; preds = %53, %1
  %12 = load i32, ptr %4, align 4
  %13 = load ptr, ptr %2, align 8
  %14 = getelementptr inbounds %struct.jpeg_decompress_struct, ptr %13, i32 0, i32 66
  %15 = load i32, ptr %14, align 8
  %16 = icmp slt i32 %12, %15
  br i1 %16, label %17, label %56

17:                                               ; preds = %11
  %18 = load ptr, ptr %2, align 8
  %19 = getelementptr inbounds %struct.jpeg_decompress_struct, ptr %18, i32 0, i32 67
  %20 = load i32, ptr %4, align 4
  %21 = sext i32 %20 to i64
  %22 = getelementptr inbounds [4 x ptr], ptr %19, i64 0, i64 %21
  %23 = load ptr, ptr %22, align 8
  store ptr %23, ptr %7, align 8
  %24 = load ptr, ptr %7, align 8
  %25 = getelementptr inbounds %struct.jpeg_component_info, ptr %24, i32 0, i32 1
  %26 = load i32, ptr %25, align 4
  store i32 %26, ptr %5, align 4
  %27 = load ptr, ptr %2, align 8
  %28 = getelementptr inbounds %struct.jpeg_decompress_struct, ptr %27, i32 0, i32 1
  %29 = load ptr, ptr %28, align 8
  %30 = getelementptr inbounds %struct.jpeg_memory_mgr, ptr %29, i32 0, i32 7
  %31 = load ptr, ptr %30, align 8
  %32 = load ptr, ptr %2, align 8
  %33 = load ptr, ptr %3, align 8
  %34 = getelementptr inbounds %struct.my_diff_controller, ptr %33, i32 0, i32 7
  %35 = load i32, ptr %5, align 4
  %36 = sext i32 %35 to i64
  %37 = getelementptr inbounds [10 x ptr], ptr %34, i64 0, i64 %36
  %38 = load ptr, ptr %37, align 8
  %39 = load ptr, ptr %2, align 8
  %40 = getelementptr inbounds %struct.jpeg_decompress_struct, ptr %39, i32 0, i32 36
  %41 = load i32, ptr %40, align 8
  %42 = load ptr, ptr %7, align 8
  %43 = getelementptr inbounds %struct.jpeg_component_info, ptr %42, i32 0, i32 3
  %44 = load i32, ptr %43, align 4
  %45 = mul i32 %41, %44
  %46 = load ptr, ptr %7, align 8
  %47 = getelementptr inbounds %struct.jpeg_component_info, ptr %46, i32 0, i32 3
  %48 = load i32, ptr %47, align 4
  %49 = call ptr %31(ptr noundef %32, ptr noundef %38, i32 noundef %45, i32 noundef %48, i32 noundef 1)
  %50 = load i32, ptr %5, align 4
  %51 = sext i32 %50 to i64
  %52 = getelementptr inbounds [4 x ptr], ptr %6, i64 0, i64 %51
  store ptr %49, ptr %52, align 8
  br label %53

53:                                               ; preds = %17
  %54 = load i32, ptr %4, align 4
  %55 = add nsw i32 %54, 1
  store i32 %55, ptr %4, align 4
  br label %11, !llvm.loop !7

56:                                               ; preds = %11
  %57 = load ptr, ptr %2, align 8
  %58 = getelementptr inbounds [4 x ptr], ptr %6, i64 0, i64 0
  %59 = call i32 @decompress_data(ptr noundef %57, ptr noundef %58)
  ret i32 %59
}