; Function Attrs: nounwind uwtable
define internal range(i32 0, 5) i32 @consume_data(ptr noundef %0) #0 {
  %2 = alloca [4 x ptr], align 16
  %3 = getelementptr inbounds nuw i8, ptr %0, i64 432
  %4 = load i32, ptr %3, align 8
  %5 = icmp sgt i32 %4, 0
  br i1 %5, label %.lr.ph, label %._crit_edge

.lr.ph:                                           ; preds = %1
  %6 = getelementptr inbounds nuw i8, ptr %0, i64 560
  %7 = load ptr, ptr %6, align 8
  %8 = getelementptr inbounds nuw i8, ptr %0, i64 440
  %9 = getelementptr inbounds nuw i8, ptr %0, i64 8
  %10 = getelementptr inbounds nuw i8, ptr %7, i64 248
  %11 = getelementptr inbounds nuw i8, ptr %0, i64 176
  br label %12

12:                                               ; preds = %.lr.ph, %12
  %indvars.iv = phi i64 [ 0, %.lr.ph ], [ %indvars.iv.next, %12 ]
  %13 = getelementptr inbounds nuw [4 x ptr], ptr %8, i64 0, i64 %indvars.iv
  %14 = load ptr, ptr %13, align 8
  %15 = getelementptr inbounds nuw i8, ptr %14, i64 4
  %16 = load i32, ptr %15, align 4
  %17 = load ptr, ptr %9, align 8
  %18 = getelementptr inbounds nuw i8, ptr %17, i64 56
  %19 = load ptr, ptr %18, align 8
  %20 = sext i32 %16 to i64
  %21 = getelementptr inbounds [10 x ptr], ptr %10, i64 0, i64 %20
  %22 = load ptr, ptr %21, align 8
  %23 = load i32, ptr %11, align 8
  %24 = getelementptr inbounds nuw i8, ptr %14, i64 12
  %25 = load i32, ptr %24, align 4
  %26 = mul i32 %25, %23
  %27 = tail call ptr %19(ptr noundef nonnull %0, ptr noundef %22, i32 noundef %26, i32 noundef %25, i32 noundef 1) #5
  %28 = getelementptr inbounds [4 x ptr], ptr %2, i64 0, i64 %20
  store ptr %27, ptr %28, align 8
  %indvars.iv.next = add nuw nsw i64 %indvars.iv, 1
  %29 = load i32, ptr %3, align 8
  %30 = sext i32 %29 to i64
  %31 = icmp slt i64 %indvars.iv.next, %30
  br i1 %31, label %12, label %._crit_edge, !llvm.loop !7

._crit_edge:                                      ; preds = %12, %1
  %32 = call i32 @decompress_data(ptr noundef nonnull %0, ptr noundef nonnull %2)
  ret i32 %32
}